target datalayout = "e-m:e-p270:32:32-p271:32:32-p272:64:64-i64:64-i128:128-f80:128-n8:16:32:64-S128"
target triple = "x86_64-pc-linux-gnu"

%struct.QemuMutex = type { %union.pthread_mutex_t, i8 }
%union.pthread_mutex_t = type { %struct.__pthread_mutex_s }
%struct.__pthread_mutex_s = type { i32, i32, i32, i32, i32, i16, i16, %struct.__pthread_internal_list }
%struct.__pthread_internal_list = type { ptr, ptr }
%struct.BlockJob = type { %struct.Job, i32, i64, %struct.RateLimit, ptr, %struct.Notifier, %struct.Notifier, %struct.Notifier, %struct.Notifier, %struct.Notifier, ptr }
%struct.Job = type { ptr, ptr, ptr, i8, i8, ptr, ptr, %struct.ProgressMeter, ptr, i32, i32, %struct.QEMUTimer, i32, i8, i8, i8, i8, i8, i8, i32, ptr, %struct.NotifierList, %struct.NotifierList, %struct.NotifierList, %struct.NotifierList, %struct.NotifierList, %struct.anon.0, ptr, %struct.anon.1 }
%struct.ProgressMeter = type { i64, i64, %struct.QemuMutex }
%struct.QEMUTimer = type { i64, ptr, ptr, ptr, ptr, i32, i32 }
%struct.NotifierList = type { %struct.anon }
%struct.anon = type { ptr }
%struct.anon.0 = type { ptr, ptr }
%struct.anon.1 = type { ptr, ptr }
%struct.RateLimit = type { %struct.QemuMutex, i64, i64, i64, i64, i64 }
%struct.Notifier = type { ptr, %struct.anon.2 }
%struct.anon.2 = type { ptr, ptr }
%struct.QemuLockable = type { ptr, ptr, ptr }

@job_mutex = external global %struct.QemuMutex, align 8

; Function Attrs: inlinehint nounwind sspstrong uwtable
define internal void @qemu_lockable_unlock(ptr noundef %0) #4 {
  %2 = alloca ptr, align 8
  store ptr %0, ptr %2, align 8
  %3 = load ptr, ptr %2, align 8
  %4 = getelementptr inbounds nuw %struct.QemuLockable, ptr %3, i32 0, i32 2
  %5 = load ptr, ptr %4, align 8
  %6 = load ptr, ptr %2, align 8
  %7 = getelementptr inbounds nuw %struct.QemuLockable, ptr %6, i32 0, i32 0
  %8 = load ptr, ptr %7, align 8
  call void %5(ptr noundef %8)
  ret void
}

; Function Attrs: inlinehint nounwind sspstrong uwtable
define internal void @glib_autoptr_clear_QemuLockable(ptr noundef %0) #4 {
  %2 = alloca ptr, align 8
  store ptr %0, ptr %2, align 8
  %3 = load ptr, ptr %2, align 8
  %4 = icmp ne ptr %3, null
  br i1 %4, label %5, label %7

5:                                                ; preds = %1
  %6 = load ptr, ptr %2, align 8
  call void @qemu_lockable_auto_unlock(ptr noundef %6)
  br label %7

7:                                                ; preds = %5, %1
  ret void
}

; Function Attrs: inlinehint nounwind sspstrong uwtable
define internal void @qemu_lockable_lock(ptr noundef %0) #4 {
  %2 = alloca ptr, align 8
  store ptr %0, ptr %2, align 8
  %3 = load ptr, ptr %2, align 8
  %4 = getelementptr inbounds nuw %struct.QemuLockable, ptr %3, i32 0, i32 1
  %5 = load ptr, ptr %4, align 8
  %6 = load ptr, ptr %2, align 8
  %7 = getelementptr inbounds nuw %struct.QemuLockable, ptr %6, i32 0, i32 0
  %8 = load ptr, ptr %7, align 8
  call void %5(ptr noundef %8)
  ret void
}

; Function Attrs: inlinehint nounwind sspstrong uwtable
define internal void @qemu_lockable_auto_unlock(ptr noundef %0) #4 {
  %2 = alloca ptr, align 8
  store ptr %0, ptr %2, align 8
  %3 = load ptr, ptr %2, align 8
  %4 = icmp ne ptr %3, null
  br i1 %4, label %5, label %7

5:                                                ; preds = %1
  %6 = load ptr, ptr %2, align 8
  call void @qemu_lockable_unlock(ptr noundef %6)
  br label %7

7:                                                ; preds = %5, %1
  ret void
}

; Function Attrs: nounwind sspstrong uwtable
define internal void @block_job_iostatus_set_err_locked(ptr noundef %0, i32 noundef %1) #0 {
  %3 = alloca ptr, align 8
  %4 = alloca i32, align 4
  store ptr %0, ptr %3, align 8
  store i32 %1, ptr %4, align 4
  %5 = load ptr, ptr %3, align 8
  %6 = getelementptr inbounds nuw %struct.BlockJob, ptr %5, i32 0, i32 1
  %7 = load i32, ptr %6, align 8
  %8 = icmp eq i32 %7, 0
  br i1 %8, label %9, label %15

9:                                                ; preds = %2
  %10 = load i32, ptr %4, align 4
  %11 = icmp eq i32 %10, 28
  %12 = select i1 %11, i32 2, i32 1
  %13 = load ptr, ptr %3, align 8
  %14 = getelementptr inbounds nuw %struct.BlockJob, ptr %13, i32 0, i32 1
  store i32 %12, ptr %14, align 8
  br label %15

15:                                               ; preds = %9, %2
  ret void
}

; Function Attrs: inlinehint nounwind sspstrong uwtable
define internal void @glib_autoptr_cleanup_QemuLockable(ptr noundef %0) #4 {
  %2 = alloca ptr, align 8
  store ptr %0, ptr %2, align 8
  %3 = load ptr, ptr %2, align 8
  %4 = load ptr, ptr %3, align 8
  call void @glib_autoptr_clear_QemuLockable(ptr noundef %4)
  ret void
}

; Function Attrs: inlinehint nounwind sspstrong uwtable
define internal ptr @qemu_lockable_auto_lock(ptr noundef %0) #4 {
  %2 = alloca ptr, align 8
  store ptr %0, ptr %2, align 8
  %3 = load ptr, ptr %2, align 8
  call void @qemu_lockable_lock(ptr noundef %3)
  %4 = load ptr, ptr %2, align 8
  ret ptr %4
}

; Function Attrs: nounwind sspstrong uwtable
define dso_local zeroext i1 @block_job_is_internal(ptr noundef %0) #0 {
  %2 = alloca ptr, align 8
  store ptr %0, ptr %2, align 8
  %3 = load ptr, ptr %2, align 8
  %4 = getelementptr inbounds nuw %struct.BlockJob, ptr %3, i32 0, i32 0
  %5 = getelementptr inbounds nuw %struct.Job, ptr %4, i32 0, i32 0
  %6 = load ptr, ptr %5, align 8
  %7 = icmp eq ptr %6, null
  ret i1 %7
}

; Function Attrs: nounwind sspstrong uwtable
define dso_local i32 @block_job_error_action(ptr noundef %0, i32 noundef %1, i32 noundef %2, i32 noundef %3) #0 {
  %5 = alloca ptr, align 8
  %6 = alloca i32, align 4
  %7 = alloca i32, align 4
  %8 = alloca i32, align 4
  %9 = alloca i32, align 4
  %10 = alloca ptr, align 8
  %11 = alloca %struct.QemuLockable, align 8
  store ptr %0, ptr %5, align 8
  store i32 %1, ptr %6, align 4
  store i32 %2, ptr %7, align 4
  store i32 %3, ptr %8, align 4
  call void @llvm.lifetime.start.p0(i64 4, ptr %9) #12
  store i32 0, ptr %9, align 4, !annotation !8
  br label %12

12:                                               ; preds = %4
  br label %13

13:                                               ; preds = %12
  br label %14

14:                                               ; preds = %13
  %15 = load i32, ptr %6, align 4
  switch i32 %15, label %23 [
    i32 2, label %16
    i32 4, label %16
    i32 3, label %20
    i32 0, label %21
    i32 1, label %22
  ]

16:                                               ; preds = %14, %14
  %17 = load i32, ptr %8, align 4
  %18 = icmp eq i32 %17, 28
  %19 = select i1 %18, i32 2, i32 1
  store i32 %19, ptr %9, align 4
  br label %24

20:                                               ; preds = %14
  store i32 2, ptr %9, align 4
  br label %24

21:                                               ; preds = %14
  store i32 1, ptr %9, align 4
  br label %24

22:                                               ; preds = %14
  store i32 0, ptr %9, align 4
  br label %24

23:                                               ; preds = %14
  call void @abort() #13
  unreachable

24:                                               ; preds = %22, %21, %20, %16
  %25 = load ptr, ptr %5, align 8
  %26 = call zeroext i1 @block_job_is_internal(ptr noundef %25)
  br i1 %26, label %36, label %27

27:                                               ; preds = %24
  %28 = load ptr, ptr %5, align 8
  %29 = getelementptr inbounds nuw %struct.BlockJob, ptr %28, i32 0, i32 0
  %30 = getelementptr inbounds nuw %struct.Job, ptr %29, i32 0, i32 0
  %31 = load ptr, ptr %30, align 8
  %32 = load i32, ptr %7, align 4
  %33 = icmp ne i32 %32, 0
  %34 = select i1 %33, i32 0, i32 1
  %35 = load i32, ptr %9, align 4
  call void @qapi_event_send_block_job_error(ptr noundef %31, i32 noundef %34, i32 noundef %35)
  br label %36

36:                                               ; preds = %27, %24
  %37 = load i32, ptr %9, align 4
  %38 = icmp eq i32 %37, 2
  br i1 %38, label %39, label %66

39:                                               ; preds = %36
  call void @llvm.lifetime.start.p0(i64 8, ptr %10) #12
  %40 = getelementptr inbounds nuw %struct.QemuLockable, ptr %11, i32 0, i32 0
  store ptr @job_mutex, ptr %40, align 8
  %41 = getelementptr inbounds nuw %struct.QemuLockable, ptr %11, i32 0, i32 1
  store ptr @qemu_lockable_mutex_lock, ptr %41, align 8
  %42 = getelementptr inbounds nuw %struct.QemuLockable, ptr %11, i32 0, i32 2
  store ptr @qemu_lockable_mutex_unlock, ptr %42, align 8
  %43 = call ptr @qemu_lockable_auto_lock(ptr noundef %11)
  store ptr %43, ptr %10, align 8
  br label %44

44:                                               ; preds = %63, %39
  %45 = load ptr, ptr %10, align 8
  %46 = icmp ne ptr %45, null
  br i1 %46, label %48, label %47

47:                                               ; preds = %44
  call void @glib_autoptr_cleanup_QemuLockable(ptr noundef %10)
  call void @llvm.lifetime.end.p0(i64 8, ptr %10) #12
  br label %65

48:                                               ; preds = %44
  %49 = load ptr, ptr %5, align 8
  %50 = getelementptr inbounds nuw %struct.BlockJob, ptr %49, i32 0, i32 0
  %51 = getelementptr inbounds nuw %struct.Job, ptr %50, i32 0, i32 15
  %52 = load i8, ptr %51, align 2, !range !11, !noundef !12
  %53 = trunc i8 %52 to i1
  br i1 %53, label %60, label %54

54:                                               ; preds = %48
  %55 = load ptr, ptr %5, align 8
  %56 = getelementptr inbounds nuw %struct.BlockJob, ptr %55, i32 0, i32 0
  call void @job_pause_locked(ptr noundef %56)
  %57 = load ptr, ptr %5, align 8
  %58 = getelementptr inbounds nuw %struct.BlockJob, ptr %57, i32 0, i32 0
  %59 = getelementptr inbounds nuw %struct.Job, ptr %58, i32 0, i32 15
  store i8 1, ptr %59, align 2
  br label %60

60:                                               ; preds = %54, %48
  %61 = load ptr, ptr %5, align 8
  %62 = load i32, ptr %8, align 4
  call void @block_job_iostatus_set_err_locked(ptr noundef %61, i32 noundef %62)
  br label %63

63:                                               ; preds = %60
  %64 = load ptr, ptr %10, align 8
  call void @qemu_lockable_auto_unlock(ptr noundef %64)
  store ptr null, ptr %10, align 8
  br label %44, !llvm.loop !14

65:                                               ; preds = %47
  br label %66

66:                                               ; preds = %65, %36
  %67 = load i32, ptr %9, align 4
  call void @llvm.lifetime.end.p0(i64 4, ptr %9) #12
  ret i32 %67
}