; Function Attrs: nounwind sspstrong uwtable
define dso_local range(i32 0, 3) i32 @block_job_error_action(ptr noundef %0, i32 noundef %1, i32 noundef %2, i32 noundef %3) local_unnamed_addr #0 {
  switch i32 %1, label %10 [
    i32 2, label %5
    i32 4, label %5
    i32 3, label %11
    i32 0, label %8
    i32 1, label %9
  ]

5:                                                ; preds = %4, %4
  %6 = icmp eq i32 %3, 28
  %7 = select i1 %6, i32 2, i32 1
  br label %11

8:                                                ; preds = %4
  br label %11

9:                                                ; preds = %4
  br label %11

10:                                               ; preds = %4
  tail call void @abort() #9
  unreachable

11:                                               ; preds = %4, %9, %8, %5
  %.0 = phi i32 [ 0, %9 ], [ 1, %8 ], [ %7, %5 ], [ 2, %4 ]
  %12 = load ptr, ptr %0, align 8
  %13 = icmp eq ptr %12, null
  br i1 %13, label %16, label %14

14:                                               ; preds = %11
  %.not = icmp eq i32 %2, 0
  %15 = zext i1 %.not to i32
  tail call void @qapi_event_send_block_job_error(ptr noundef nonnull %12, i32 noundef %15, i32 noundef %.0) #8
  br label %16

16:                                               ; preds = %14, %11
  %17 = icmp eq i32 %.0, 2
  br i1 %17, label %.split.us, label %glib_autoptr_cleanup_QemuLockable.exit

.split.us:                                        ; preds = %16
  %18 = load atomic i64, ptr @qemu_mutex_lock_func monotonic, align 8
  %19 = inttoptr i64 %18 to ptr
  tail call void %19(ptr noundef nonnull @job_mutex, ptr noundef nonnull @.str.13, i32 noundef 56) #8
  %20 = getelementptr inbounds nuw i8, ptr %0, i64 182
  %21 = getelementptr inbounds nuw i8, ptr %0, i64 280
  %22 = icmp eq i32 %3, 28
  %23 = select i1 %22, i32 2, i32 1
  %24 = load i8, ptr %20, align 2, !range !10, !noundef !11
  %25 = trunc nuw i8 %24 to i1
  br i1 %25, label %27, label %26

26:                                               ; preds = %.split.us
  tail call void @job_pause_locked(ptr noundef nonnull %0) #8
  store i8 1, ptr %20, align 2
  br label %27

27:                                               ; preds = %26, %.split.us
  %28 = load i32, ptr %21, align 8
  %29 = icmp eq i32 %28, 0
  br i1 %29, label %30, label %qemu_lockable_auto_unlock.exit.us

30:                                               ; preds = %27
  store i32 %23, ptr %21, align 8
  br label %qemu_lockable_auto_unlock.exit.us

qemu_lockable_auto_unlock.exit.us:                ; preds = %30, %27
  tail call void @qemu_mutex_unlock_impl(ptr noundef nonnull @job_mutex, ptr noundef nonnull @.str.13, i32 noundef 56) #8
  br label %glib_autoptr_cleanup_QemuLockable.exit

glib_autoptr_cleanup_QemuLockable.exit:           ; preds = %qemu_lockable_auto_unlock.exit.us, %16
  ret i32 %.0
}